target datalayout = "e-m:e-p270:32:32-p271:32:32-p272:64:64-i64:64-i128:128-f80:128-n8:16:32:64-S128"
target triple = "x86_64-pc-linux-gnu"

%"class.llvm::SmallVectorBase" = type { ptr, i32, i32 }
%"class.llvm::TargetSchedModel" = type { %"struct.llvm::MCSchedModel", %"class.llvm::InstrItineraryData", ptr, ptr, %"class.llvm::SmallVector.34", i32, i32 }
%"struct.llvm::MCSchedModel" = type { i32, i32, i32, i32, i32, i32, i8, i8, i8, i32, ptr, ptr, i32, i32, ptr, ptr }
%"class.llvm::InstrItineraryData" = type { %"struct.llvm::MCSchedModel", ptr, ptr, ptr, ptr }
%"class.llvm::SmallVector.34" = type { %"class.llvm::SmallVectorImpl.35", %"struct.llvm::SmallVectorStorage.38" }
%"class.llvm::SmallVectorImpl.35" = type { %"class.llvm::SmallVectorTemplateBase.36" }
%"class.llvm::SmallVectorTemplateBase.36" = type { %"class.llvm::SmallVectorTemplateCommon.37" }
%"class.llvm::SmallVectorTemplateCommon.37" = type { %"class.llvm::SmallVectorBase" }
%"struct.llvm::SmallVectorStorage.38" = type { [64 x i8] }
%"class.llvm::SUnit" = type <{ %union.anon.43, ptr, ptr, ptr, ptr, %"class.llvm::SmallVector.44", %"class.llvm::SmallVector.44", i32, i32, i32, i32, i32, i32, i32, i32, i32, i32, i32, i32, i16, i16, i16, i8, i8 }>
%union.anon.43 = type { ptr }
%"class.llvm::SmallVector.44" = type { %"class.llvm::SmallVectorImpl.45", %"struct.llvm::SmallVectorStorage.48" }
%"class.llvm::SmallVectorImpl.45" = type { %"class.llvm::SmallVectorTemplateBase.46" }
%"class.llvm::SmallVectorTemplateBase.46" = type { %"class.llvm::SmallVectorTemplateCommon.47" }
%"class.llvm::SmallVectorTemplateCommon.47" = type { %"class.llvm::SmallVectorBase" }
%"struct.llvm::SmallVectorStorage.48" = type { [64 x i8] }
%"struct.llvm::ConvergingVLIWScheduler::VLIWSchedBoundary" = type <{ ptr, ptr, %"class.llvm::ReadyQueue", %"class.llvm::ReadyQueue", i8, [7 x i8], ptr, ptr, i32, i32, i32, i32, i32, [4 x i8] }>
%"class.llvm::ReadyQueue" = type { i32, %"class.std::__cxx11::basic_string", %"class.std::vector.142" }
%"class.std::__cxx11::basic_string" = type { %"struct.std::__cxx11::basic_string<char>::_Alloc_hider", i64, %union.anon }
%"struct.std::__cxx11::basic_string<char>::_Alloc_hider" = type { ptr }
%union.anon = type { i64, [8 x i8] }
%"class.std::vector.142" = type { %"struct.std::_Vector_base.143" }
%"struct.std::_Vector_base.143" = type { %"struct.std::_Vector_base<llvm::SUnit *, std::allocator<llvm::SUnit *>>::_Vector_impl" }
%"struct.std::_Vector_base<llvm::SUnit *, std::allocator<llvm::SUnit *>>::_Vector_impl" = type { %"struct.std::_Vector_base<llvm::SUnit *, std::allocator<llvm::SUnit *>>::_Vector_impl_data" }
%"struct.std::_Vector_base<llvm::SUnit *, std::allocator<llvm::SUnit *>>::_Vector_impl_data" = type { ptr, ptr, ptr }
%"class.llvm::ScheduleHazardRecognizer" = type <{ ptr, i32, [4 x i8] }>

; Function Attrs: mustprogress nounwind uwtable
define linkonce_odr noundef nonnull align 4 dereferenceable(4) ptr @_ZSt3maxIjERKT_S2_S2_(ptr noundef nonnull align 4 dereferenceable(4) %0, ptr noundef nonnull align 4 dereferenceable(4) %1) #1 comdat {
  %3 = alloca ptr, align 8
  %4 = alloca ptr, align 8
  %5 = alloca ptr, align 8
  store ptr %0, ptr %4, align 8
  store ptr %1, ptr %5, align 8
  %6 = load ptr, ptr %4, align 8
  %7 = load i32, ptr %6, align 4
  %8 = load ptr, ptr %5, align 8
  %9 = load i32, ptr %8, align 4
  %10 = icmp ult i32 %7, %9
  br i1 %10, label %11, label %13

11:                                               ; preds = %2
  %12 = load ptr, ptr %5, align 8
  store ptr %12, ptr %3, align 8
  br label %15

13:                                               ; preds = %2
  %14 = load ptr, ptr %4, align 8
  store ptr %14, ptr %3, align 8
  br label %15

15:                                               ; preds = %13, %11
  %16 = load ptr, ptr %3, align 8
  ret ptr %16
}

; Function Attrs: mustprogress nounwind uwtable
define linkonce_odr hidden noundef i32 @_ZNK4llvm16TargetSchedModel13getIssueWidthEv(ptr noundef nonnull align 8 dereferenceable(280) %0) #1 comdat align 2 {
  %2 = alloca ptr, align 8
  store ptr %0, ptr %2, align 8
  %3 = load ptr, ptr %2, align 8
  %4 = getelementptr inbounds nuw %"class.llvm::TargetSchedModel", ptr %3, i32 0, i32 0
  %5 = getelementptr inbounds nuw %"struct.llvm::MCSchedModel", ptr %4, i32 0, i32 0
  %6 = load i32, ptr %5, align 8
  ret i32 %6
}

; Function Attrs: mustprogress nounwind uwtable
define linkonce_odr hidden noundef i32 @_ZNK4llvm10ReadyQueue5getIDEv(ptr noundef nonnull align 8 dereferenceable(64) %0) #1 comdat align 2 {
  %2 = alloca ptr, align 8
  store ptr %0, ptr %2, align 8
  %3 = load ptr, ptr %2, align 8
  %4 = getelementptr inbounds nuw %"class.llvm::ReadyQueue", ptr %3, i32 0, i32 0
  %5 = load i32, ptr %4, align 8
  ret i32 %5
}

; Function Attrs: mustprogress nounwind uwtable
define dso_local void @_ZN4llvm23ConvergingVLIWScheduler17VLIWSchedBoundary9bumpCycleEv(ptr noundef nonnull align 8 dereferenceable(188) %0) #1 align 2 {
  %2 = alloca ptr, align 8
  %3 = alloca i32, align 4
  %4 = alloca i32, align 4
  %5 = alloca i32, align 4
  store ptr %0, ptr %2, align 8
  %6 = load ptr, ptr %2, align 8
  %7 = getelementptr inbounds nuw %"struct.llvm::ConvergingVLIWScheduler::VLIWSchedBoundary", ptr %6, i32 0, i32 1
  %8 = load ptr, ptr %7, align 8
  %9 = call noundef i32 @_ZNK4llvm16TargetSchedModel13getIssueWidthEv(ptr noundef nonnull align 8 dereferenceable(280) %8)
  store i32 %9, ptr %3, align 4
  %10 = getelementptr inbounds nuw %"struct.llvm::ConvergingVLIWScheduler::VLIWSchedBoundary", ptr %6, i32 0, i32 9
  %11 = load i32, ptr %10, align 4
  %12 = load i32, ptr %3, align 4
  %13 = icmp ule i32 %11, %12
  br i1 %13, label %14, label %15

14:                                               ; preds = %1
  br label %20

15:                                               ; preds = %1
  %16 = getelementptr inbounds nuw %"struct.llvm::ConvergingVLIWScheduler::VLIWSchedBoundary", ptr %6, i32 0, i32 9
  %17 = load i32, ptr %16, align 4
  %18 = load i32, ptr %3, align 4
  %19 = sub i32 %17, %18
  br label %20

20:                                               ; preds = %15, %14
  %21 = phi i32 [ 0, %14 ], [ %19, %15 ]
  %22 = getelementptr inbounds nuw %"struct.llvm::ConvergingVLIWScheduler::VLIWSchedBoundary", ptr %6, i32 0, i32 9
  store i32 %21, ptr %22, align 4
  %23 = getelementptr inbounds nuw %"struct.llvm::ConvergingVLIWScheduler::VLIWSchedBoundary", ptr %6, i32 0, i32 8
  %24 = load i32, ptr %23, align 8
  %25 = add i32 %24, 1
  store i32 %25, ptr %5, align 4
  %26 = getelementptr inbounds nuw %"struct.llvm::ConvergingVLIWScheduler::VLIWSchedBoundary", ptr %6, i32 0, i32 11
  %27 = call noundef nonnull align 4 dereferenceable(4) ptr @_ZSt3maxIjERKT_S2_S2_(ptr noundef nonnull align 4 dereferenceable(4) %5, ptr noundef nonnull align 4 dereferenceable(4) %26)
  %28 = load i32, ptr %27, align 4
  store i32 %28, ptr %4, align 4
  %29 = getelementptr inbounds nuw %"struct.llvm::ConvergingVLIWScheduler::VLIWSchedBoundary", ptr %6, i32 0, i32 6
  %30 = load ptr, ptr %29, align 8
  %31 = call noundef zeroext i1 @_ZNK4llvm24ScheduleHazardRecognizer9isEnabledEv(ptr noundef nonnull align 8 dereferenceable(12) %30)
  br i1 %31, label %35, label %32

32:                                               ; preds = %20
  %33 = load i32, ptr %4, align 4
  %34 = getelementptr inbounds nuw %"struct.llvm::ConvergingVLIWScheduler::VLIWSchedBoundary", ptr %6, i32 0, i32 8
  store i32 %33, ptr %34, align 8
  br label %61

35:                                               ; preds = %20
  br label %36

36:                                               ; preds = %56, %35
  %37 = getelementptr inbounds nuw %"struct.llvm::ConvergingVLIWScheduler::VLIWSchedBoundary", ptr %6, i32 0, i32 8
  %38 = load i32, ptr %37, align 8
  %39 = load i32, ptr %4, align 4
  %40 = icmp ne i32 %38, %39
  br i1 %40, label %41, label %60

41:                                               ; preds = %36
  %42 = call noundef zeroext i1 @_ZNK4llvm23ConvergingVLIWScheduler17VLIWSchedBoundary5isTopEv(ptr noundef nonnull align 8 dereferenceable(188) %6)
  br i1 %42, label %43, label %49

43:                                               ; preds = %41
  %44 = getelementptr inbounds nuw %"struct.llvm::ConvergingVLIWScheduler::VLIWSchedBoundary", ptr %6, i32 0, i32 6
  %45 = load ptr, ptr %44, align 8
  %46 = load ptr, ptr %45, align 8
  %47 = getelementptr inbounds ptr, ptr %46, i64 10
  %48 = load ptr, ptr %47, align 8
  call void %48(ptr noundef nonnull align 8 dereferenceable(12) %45)
  br label %55

49:                                               ; preds = %41
  %50 = getelementptr inbounds nuw %"struct.llvm::ConvergingVLIWScheduler::VLIWSchedBoundary", ptr %6, i32 0, i32 6
  %51 = load ptr, ptr %50, align 8
  %52 = load ptr, ptr %51, align 8
  %53 = getelementptr inbounds ptr, ptr %52, i64 11
  %54 = load ptr, ptr %53, align 8
  call void %54(ptr noundef nonnull align 8 dereferenceable(12) %51)
  br label %55

55:                                               ; preds = %49, %43
  br label %56

56:                                               ; preds = %55
  %57 = getelementptr inbounds nuw %"struct.llvm::ConvergingVLIWScheduler::VLIWSchedBoundary", ptr %6, i32 0, i32 8
  %58 = load i32, ptr %57, align 8
  %59 = add i32 %58, 1
  store i32 %59, ptr %57, align 8
  br label %36, !llvm.loop !8

60:                                               ; preds = %36
  br label %61

61:                                               ; preds = %60, %32
  %62 = getelementptr inbounds nuw %"struct.llvm::ConvergingVLIWScheduler::VLIWSchedBoundary", ptr %6, i32 0, i32 4
  store i8 1, ptr %62, align 8
  br label %63

63:                                               ; preds = %61
  br label %64

64:                                               ; preds = %63
  ret void
}

; Function Attrs: mustprogress nounwind uwtable
define linkonce_odr hidden noundef ptr @_ZNK4llvm5SUnit8getInstrEv(ptr noundef nonnull align 8 dereferenceable(255) %0) #1 comdat align 2 {
  %2 = alloca ptr, align 8
  store ptr %0, ptr %2, align 8
  %3 = load ptr, ptr %2, align 8
  %4 = getelementptr inbounds nuw %"class.llvm::SUnit", ptr %3, i32 0, i32 0
  %5 = load ptr, ptr %4, align 8
  ret ptr %5
}

; Function Attrs: mustprogress nounwind uwtable
define linkonce_odr hidden noundef zeroext i1 @_ZNK4llvm23ConvergingVLIWScheduler17VLIWSchedBoundary5isTopEv(ptr noundef nonnull align 8 dereferenceable(188) %0) #1 comdat align 2 {
  %2 = alloca ptr, align 8
  store ptr %0, ptr %2, align 8
  %3 = load ptr, ptr %2, align 8
  %4 = getelementptr inbounds nuw %"struct.llvm::ConvergingVLIWScheduler::VLIWSchedBoundary", ptr %3, i32 0, i32 2
  %5 = call noundef i32 @_ZNK4llvm10ReadyQueue5getIDEv(ptr noundef nonnull align 8 dereferenceable(64) %4)
  %6 = icmp eq i32 %5, 1
  ret i1 %6
}

; Function Attrs: mustprogress nounwind uwtable
define linkonce_odr hidden noundef zeroext i1 @_ZNK4llvm24ScheduleHazardRecognizer9isEnabledEv(ptr noundef nonnull align 8 dereferenceable(12) %0) #1 comdat align 2 {
  %2 = alloca ptr, align 8
  store ptr %0, ptr %2, align 8
  %3 = load ptr, ptr %2, align 8
  %4 = getelementptr inbounds nuw %"class.llvm::ScheduleHazardRecognizer", ptr %3, i32 0, i32 1
  %5 = load i32, ptr %4, align 8
  %6 = icmp ne i32 %5, 0
  ret i1 %6
}

; Function Attrs: mustprogress nounwind uwtable
define dso_local void @_ZN4llvm23ConvergingVLIWScheduler17VLIWSchedBoundary8bumpNodeEPNS_5SUnitE(ptr noundef nonnull align 8 dereferenceable(188) %0, ptr noundef %1) #1 align 2 {
  %3 = alloca ptr, align 8
  %4 = alloca ptr, align 8
  %5 = alloca i8, align 1
  store ptr %0, ptr %3, align 8
  store ptr %1, ptr %4, align 8
  %6 = load ptr, ptr %3, align 8
  store i8 0, ptr %5, align 1
  %7 = getelementptr inbounds nuw %"struct.llvm::ConvergingVLIWScheduler::VLIWSchedBoundary", ptr %6, i32 0, i32 6
  %8 = load ptr, ptr %7, align 8
  %9 = call noundef zeroext i1 @_ZNK4llvm24ScheduleHazardRecognizer9isEnabledEv(ptr noundef nonnull align 8 dereferenceable(12) %8)
  br i1 %9, label %10, label %32

10:                                               ; preds = %2
  %11 = call noundef zeroext i1 @_ZNK4llvm23ConvergingVLIWScheduler17VLIWSchedBoundary5isTopEv(ptr noundef nonnull align 8 dereferenceable(188) %6)
  br i1 %11, label %25, label %12

12:                                               ; preds = %10
  %13 = load ptr, ptr %4, align 8
  %14 = getelementptr inbounds nuw %"class.llvm::SUnit", ptr %13, i32 0, i32 19
  %15 = load i16, ptr %14, align 8
  %16 = lshr i16 %15, 1
  %17 = and i16 %16, 1
  %18 = trunc i16 %17 to i1
  br i1 %18, label %19, label %25

19:                                               ; preds = %12
  %20 = getelementptr inbounds nuw %"struct.llvm::ConvergingVLIWScheduler::VLIWSchedBoundary", ptr %6, i32 0, i32 6
  %21 = load ptr, ptr %20, align 8
  %22 = load ptr, ptr %21, align 8
  %23 = getelementptr inbounds ptr, ptr %22, i64 4
  %24 = load ptr, ptr %23, align 8
  call void %24(ptr noundef nonnull align 8 dereferenceable(12) %21)
  br label %25

25:                                               ; preds = %19, %12, %10
  %26 = getelementptr inbounds nuw %"struct.llvm::ConvergingVLIWScheduler::VLIWSchedBoundary", ptr %6, i32 0, i32 6
  %27 = load ptr, ptr %26, align 8
  %28 = load ptr, ptr %4, align 8
  %29 = load ptr, ptr %27, align 8
  %30 = getelementptr inbounds ptr, ptr %29, i64 5
  %31 = load ptr, ptr %30, align 8
  call void %31(ptr noundef nonnull align 8 dereferenceable(12) %27, ptr noundef %28)
  br label %32

32:                                               ; preds = %25, %2
  %33 = getelementptr inbounds nuw %"struct.llvm::ConvergingVLIWScheduler::VLIWSchedBoundary", ptr %6, i32 0, i32 7
  %34 = load ptr, ptr %33, align 8
  %35 = load ptr, ptr %4, align 8
  %36 = call noundef zeroext i1 @_ZNK4llvm23ConvergingVLIWScheduler17VLIWSchedBoundary5isTopEv(ptr noundef nonnull align 8 dereferenceable(188) %6)
  %37 = load ptr, ptr %34, align 8
  %38 = getelementptr inbounds ptr, ptr %37, i64 5
  %39 = load ptr, ptr %38, align 8
  %40 = call noundef zeroext i1 %39(ptr noundef nonnull align 8 dereferenceable(100) %34, ptr noundef %35, i1 noundef zeroext %36)
  %41 = zext i1 %40 to i8
  store i8 %41, ptr %5, align 1
  %42 = getelementptr inbounds nuw %"struct.llvm::ConvergingVLIWScheduler::VLIWSchedBoundary", ptr %6, i32 0, i32 1
  %43 = load ptr, ptr %42, align 8
  %44 = load ptr, ptr %4, align 8
  %45 = call noundef ptr @_ZNK4llvm5SUnit8getInstrEv(ptr noundef nonnull align 8 dereferenceable(255) %44)
  %46 = call noundef i32 @_ZNK4llvm16TargetSchedModel14getNumMicroOpsEPKNS_12MachineInstrEPKNS_16MCSchedClassDescE(ptr noundef nonnull align 8 dereferenceable(280) %43, ptr noundef %45, ptr noundef null)
  %47 = getelementptr inbounds nuw %"struct.llvm::ConvergingVLIWScheduler::VLIWSchedBoundary", ptr %6, i32 0, i32 9
  %48 = load i32, ptr %47, align 4
  %49 = add i32 %48, %46
  store i32 %49, ptr %47, align 4
  %50 = load i8, ptr %5, align 1
  %51 = trunc i8 %50 to i1
  br i1 %51, label %52, label %55

52:                                               ; preds = %32
  br label %53

53:                                               ; preds = %52
  br label %54

54:                                               ; preds = %53
  call void @_ZN4llvm23ConvergingVLIWScheduler17VLIWSchedBoundary9bumpCycleEv(ptr noundef nonnull align 8 dereferenceable(188) %6)
  br label %58

55:                                               ; preds = %32
  br label %56

56:                                               ; preds = %55
  br label %57

57:                                               ; preds = %56
  br label %58

58:                                               ; preds = %57, %54
  ret void
}