; Function Attrs: mustprogress nounwind uwtable
define dso_local void @_ZN4llvm23ConvergingVLIWScheduler17VLIWSchedBoundary8bumpNodeEPNS_5SUnitE(ptr nocapture noundef nonnull align 8 dereferenceable(188) %0, ptr noundef %1) local_unnamed_addr #0 align 2 {
  %3 = getelementptr inbounds nuw i8, ptr %0, i64 152
  %4 = load ptr, ptr %3, align 8
  %5 = getelementptr inbounds nuw i8, ptr %4, i64 8
  %6 = load i32, ptr %5, align 8
  %.not5 = icmp eq i32 %6, 0
  br i1 %.not5, label %24, label %7

7:                                                ; preds = %2
  %8 = getelementptr inbounds nuw i8, ptr %0, i64 16
  %9 = load i32, ptr %8, align 8
  %10 = icmp eq i32 %9, 1
  br i1 %10, label %19, label %11

11:                                               ; preds = %7
  %12 = getelementptr inbounds nuw i8, ptr %1, i64 248
  %13 = load i16, ptr %12, align 8
  %14 = and i16 %13, 2
  %.not = icmp eq i16 %14, 0
  br i1 %.not, label %19, label %15

15:                                               ; preds = %11
  %16 = load ptr, ptr %4, align 8
  %17 = getelementptr inbounds i8, ptr %16, i64 32
  %18 = load ptr, ptr %17, align 8
  tail call void %18(ptr noundef nonnull align 8 dereferenceable(12) %4) #15
  %.pre = load ptr, ptr %3, align 8
  br label %19

19:                                               ; preds = %15, %11, %7
  %20 = phi ptr [ %.pre, %15 ], [ %4, %11 ], [ %4, %7 ]
  %21 = load ptr, ptr %20, align 8
  %22 = getelementptr inbounds i8, ptr %21, i64 40
  %23 = load ptr, ptr %22, align 8
  tail call void %23(ptr noundef nonnull align 8 dereferenceable(12) %20, ptr noundef %1) #15
  br label %24

24:                                               ; preds = %19, %2
  %25 = getelementptr inbounds nuw i8, ptr %0, i64 160
  %26 = load ptr, ptr %25, align 8
  %27 = getelementptr inbounds nuw i8, ptr %0, i64 16
  %28 = load i32, ptr %27, align 8
  %29 = icmp eq i32 %28, 1
  %30 = load ptr, ptr %26, align 8
  %31 = getelementptr inbounds i8, ptr %30, i64 40
  %32 = load ptr, ptr %31, align 8
  %33 = tail call noundef zeroext i1 %32(ptr noundef nonnull align 8 dereferenceable(100) %26, ptr noundef %1, i1 noundef zeroext %29) #15
  %34 = getelementptr inbounds nuw i8, ptr %0, i64 8
  %35 = load ptr, ptr %34, align 8
  %36 = load ptr, ptr %1, align 8
  %37 = tail call noundef i32 @_ZNK4llvm16TargetSchedModel14getNumMicroOpsEPKNS_12MachineInstrEPKNS_16MCSchedClassDescE(ptr noundef nonnull align 8 dereferenceable(280) %35, ptr noundef %36, ptr noundef null) #15
  %38 = getelementptr inbounds nuw i8, ptr %0, i64 172
  %39 = load i32, ptr %38, align 4
  %40 = add i32 %39, %37
  store i32 %40, ptr %38, align 4
  br i1 %33, label %41, label %62

41:                                               ; preds = %24
  %42 = load ptr, ptr %34, align 8
  %43 = load i32, ptr %42, align 8
  %spec.select.i = tail call i32 @llvm.usub.sat.i32(i32 %40, i32 %43)
  store i32 %spec.select.i, ptr %38, align 4
  %44 = getelementptr inbounds nuw i8, ptr %0, i64 168
  %45 = load i32, ptr %44, align 8
  %46 = add i32 %45, 1
  %47 = getelementptr inbounds nuw i8, ptr %0, i64 180
  %48 = load i32, ptr %47, align 4
  %.sroa.speculated.i = tail call i32 @llvm.umax.i32(i32 %46, i32 %48)
  %49 = load ptr, ptr %3, align 8
  %50 = getelementptr inbounds nuw i8, ptr %49, i64 8
  %51 = load i32, ptr %50, align 8
  %.not.i = icmp eq i32 %51, 0
  br i1 %.not.i, label %52, label %.preheader.i

.preheader.i:                                     ; preds = %41
  %.not57.i = icmp eq i32 %45, %.sroa.speculated.i
  br i1 %.not57.i, label %_ZN4llvm23ConvergingVLIWScheduler17VLIWSchedBoundary9bumpCycleEv.exit, label %.lr.ph.i

52:                                               ; preds = %41
  store i32 %.sroa.speculated.i, ptr %44, align 8
  br label %_ZN4llvm23ConvergingVLIWScheduler17VLIWSchedBoundary9bumpCycleEv.exit

.lr.ph.i:                                         ; preds = %.preheader.i, %.lr.ph.i
  %53 = load i32, ptr %27, align 8
  %54 = icmp eq i32 %53, 1
  %55 = load ptr, ptr %3, align 8
  %56 = load ptr, ptr %55, align 8
  %..i = select i1 %54, i64 80, i64 88
  %57 = getelementptr inbounds i8, ptr %56, i64 %..i
  %58 = load ptr, ptr %57, align 8
  tail call void %58(ptr noundef nonnull align 8 dereferenceable(12) %55) #15
  %59 = load i32, ptr %44, align 8
  %60 = add i32 %59, 1
  store i32 %60, ptr %44, align 8
  %.not5.i = icmp eq i32 %60, %.sroa.speculated.i
  br i1 %.not5.i, label %_ZN4llvm23ConvergingVLIWScheduler17VLIWSchedBoundary9bumpCycleEv.exit, label %.lr.ph.i, !llvm.loop !9

_ZN4llvm23ConvergingVLIWScheduler17VLIWSchedBoundary9bumpCycleEv.exit: ; preds = %.lr.ph.i, %.preheader.i, %52
  %61 = getelementptr inbounds nuw i8, ptr %0, i64 144
  store i8 1, ptr %61, align 8
  br label %62

62:                                               ; preds = %24, %_ZN4llvm23ConvergingVLIWScheduler17VLIWSchedBoundary9bumpCycleEv.exit
  ret void
}